target datalayout = "e-m:e-p270:32:32-p271:32:32-p272:64:64-i64:64-i128:128-f80:128-n8:16:32:64-S128"
target triple = "x86_64-pc-linux-gnu"

%struct._zend_ssa = type { %struct._zend_cfg, i32, i32, ptr, ptr, ptr, ptr }
%struct._zend_cfg = type { i32, i32, ptr, ptr, ptr, i32 }
%struct._zend_ssa_var = type { i32, i32, i32, i32, ptr, ptr, ptr, i8 }
%struct._zend_ssa_op = type { i32, i32, i32, i32, i32, i32, i32, i32, i32 }

; Function Attrs: nounwind uwtable
define internal zeroext i1 @result_may_be_separated(ptr noundef %0, ptr noundef %1) #0 {
  %3 = alloca i1, align 1
  %4 = alloca ptr, align 8
  %5 = alloca ptr, align 8
  %6 = alloca i32, align 4
  %7 = alloca ptr, align 8
  store ptr %0, ptr %4, align 8
  store ptr %1, ptr %5, align 8
  %8 = load ptr, ptr %5, align 8
  %9 = getelementptr inbounds %struct._zend_ssa_op, ptr %8, i32 0, i32 5
  %10 = load i32, ptr %9, align 4
  store i32 %10, ptr %6, align 4
  %11 = load ptr, ptr %4, align 8
  %12 = getelementptr inbounds %struct._zend_ssa, ptr %11, i32 0, i32 5
  %13 = load ptr, ptr %12, align 8
  %14 = load i32, ptr %6, align 4
  %15 = sext i32 %14 to i64
  %16 = getelementptr inbounds %struct._zend_ssa_var, ptr %13, i64 %15
  %17 = getelementptr inbounds %struct._zend_ssa_var, ptr %16, i32 0, i32 3
  %18 = load i32, ptr %17, align 4
  %19 = icmp sge i32 %18, 0
  br i1 %19, label %20, label %73

20:                                               ; preds = %2
  %21 = load ptr, ptr %4, align 8
  %22 = getelementptr inbounds %struct._zend_ssa, ptr %21, i32 0, i32 5
  %23 = load ptr, ptr %22, align 8
  %24 = load i32, ptr %6, align 4
  %25 = sext i32 %24 to i64
  %26 = getelementptr inbounds %struct._zend_ssa_var, ptr %23, i64 %25
  %27 = getelementptr inbounds %struct._zend_ssa_var, ptr %26, i32 0, i32 5
  %28 = load ptr, ptr %27, align 8
  %29 = icmp ne ptr %28, null
  br i1 %29, label %73, label %30

30:                                               ; preds = %20
  %31 = load ptr, ptr %4, align 8
  %32 = getelementptr inbounds %struct._zend_ssa, ptr %31, i32 0, i32 4
  %33 = load ptr, ptr %32, align 8
  %34 = load ptr, ptr %4, align 8
  %35 = getelementptr inbounds %struct._zend_ssa, ptr %34, i32 0, i32 5
  %36 = load ptr, ptr %35, align 8
  %37 = load i32, ptr %6, align 4
  %38 = sext i32 %37 to i64
  %39 = getelementptr inbounds %struct._zend_ssa_var, ptr %36, i64 %38
  %40 = getelementptr inbounds %struct._zend_ssa_var, ptr %39, i32 0, i32 3
  %41 = load i32, ptr %40, align 4
  %42 = sext i32 %41 to i64
  %43 = getelementptr inbounds %struct._zend_ssa_op, ptr %33, i64 %42
  store ptr %43, ptr %7, align 8
  %44 = load ptr, ptr %7, align 8
  %45 = load ptr, ptr %5, align 8
  %46 = getelementptr inbounds %struct._zend_ssa_op, ptr %45, i64 1
  %47 = icmp eq ptr %44, %46
  br i1 %47, label %48, label %72

48:                                               ; preds = %30
  %49 = load ptr, ptr %7, align 8
  %50 = getelementptr inbounds %struct._zend_ssa_op, ptr %49, i32 0, i32 0
  %51 = load i32, ptr %50, align 4
  %52 = load i32, ptr %6, align 4
  %53 = icmp eq i32 %51, %52
  br i1 %53, label %54, label %59

54:                                               ; preds = %48
  %55 = load ptr, ptr %7, align 8
  %56 = getelementptr inbounds %struct._zend_ssa_op, ptr %55, i32 0, i32 6
  %57 = load i32, ptr %56, align 4
  %58 = icmp slt i32 %57, 0
  br i1 %58, label %70, label %59

59:                                               ; preds = %54, %48
  %60 = load ptr, ptr %7, align 8
  %61 = getelementptr inbounds %struct._zend_ssa_op, ptr %60, i32 0, i32 1
  %62 = load i32, ptr %61, align 4
  %63 = load i32, ptr %6, align 4
  %64 = icmp eq i32 %62, %63
  br i1 %64, label %65, label %71

65:                                               ; preds = %59
  %66 = load ptr, ptr %7, align 8
  %67 = getelementptr inbounds %struct._zend_ssa_op, ptr %66, i32 0, i32 7
  %68 = load i32, ptr %67, align 4
  %69 = icmp slt i32 %68, 0
  br i1 %69, label %70, label %71

70:                                               ; preds = %65, %54
  store i1 false, ptr %3, align 1
  br label %74

71:                                               ; preds = %65, %59
  br label %72

72:                                               ; preds = %71, %30
  br label %73

73:                                               ; preds = %72, %20, %2
  store i1 true, ptr %3, align 1
  br label %74

74:                                               ; preds = %73, %70
  %75 = load i1, ptr %3, align 1
  ret i1 %75
}