; Function Attrs: mustprogress nofree norecurse nosync nounwind willreturn memory(read, inaccessiblemem: none) uwtable
define internal fastcc noundef zeroext i1 @result_may_be_separated(ptr nocapture noundef readonly %0, ptr noundef readonly %1) unnamed_addr #13 {
  %3 = getelementptr inbounds i8, ptr %1, i64 20
  %4 = load i32, ptr %3, align 4
  %5 = getelementptr inbounds i8, ptr %0, i64 64
  %6 = load ptr, ptr %5, align 8
  %7 = sext i32 %4 to i64
  %8 = getelementptr inbounds %struct._zend_ssa_var, ptr %6, i64 %7
  %9 = getelementptr inbounds i8, ptr %8, i64 12
  %10 = load i32, ptr %9, align 4
  %11 = icmp sgt i32 %10, -1
  br i1 %11, label %12, label %37

12:                                               ; preds = %2
  %13 = getelementptr inbounds i8, ptr %8, i64 24
  %14 = load ptr, ptr %13, align 8
  %.not = icmp eq ptr %14, null
  br i1 %.not, label %15, label %37

15:                                               ; preds = %12
  %16 = getelementptr inbounds i8, ptr %0, i64 56
  %17 = load ptr, ptr %16, align 8
  %18 = zext nneg i32 %10 to i64
  %19 = getelementptr inbounds %struct._zend_ssa_op, ptr %17, i64 %18
  %20 = getelementptr inbounds i8, ptr %1, i64 36
  %21 = icmp eq ptr %19, %20
  br i1 %21, label %22, label %37

22:                                               ; preds = %15
  %23 = load i32, ptr %19, align 4
  %24 = icmp eq i32 %23, %4
  br i1 %24, label %25, label %29

25:                                               ; preds = %22
  %26 = getelementptr inbounds i8, ptr %19, i64 24
  %27 = load i32, ptr %26, align 4
  %28 = icmp slt i32 %27, 0
  br i1 %28, label %38, label %29

29:                                               ; preds = %25, %22
  %30 = getelementptr inbounds i8, ptr %19, i64 4
  %31 = load i32, ptr %30, align 4
  %32 = icmp eq i32 %31, %4
  br i1 %32, label %33, label %37

33:                                               ; preds = %29
  %34 = getelementptr inbounds i8, ptr %19, i64 28
  %35 = load i32, ptr %34, align 4
  %36 = icmp slt i32 %35, 0
  br i1 %36, label %38, label %37

37:                                               ; preds = %15, %33, %29, %12, %2
  br label %38

38:                                               ; preds = %25, %33, %37
  %.0 = phi i1 [ true, %37 ], [ false, %33 ], [ false, %25 ]
  ret i1 %.0
}